Certificate:
    Data:
        Version: 3 (0x2)
        Serial Number:
            8f:0b:26:6d:1f:77:d7:8f
        Signature Algorithm: sha256WithRSAEncryption
        Issuer: C=MM, ST=Burma, L=Mandalay, O=KBZPay, OU=KBZPay_PGW_CA, CN=api.kbzpay.com/emailAddress=jiangbin@huawei.com
        Validity
            Not Before: Jul 18 07:29:19 2023 GMT
            Not After : Jun 24 07:29:19 2123 GMT
        Subject: C=MM, ST=Burma, O=KBZPay, OU=KBZPay_PGW_200277, CN=api.kbzpay.com/emailAddress=jiangbin@huawei.com
        Subject Public Key Info:
            Public Key Algorithm: rsaEncryption
                RSA Public-Key: (2048 bit)
                Modulus:
                    00:c6:f3:fa:bc:59:0d:b1:53:fc:13:ec:52:17:c1:
                    b7:07:82:6c:38:2d:a0:83:4e:ee:48:38:f8:27:4d:
                    9e:1b:96:3f:03:08:05:77:7f:df:4c:7a:f4:65:32:
                    16:a4:bf:64:b1:4b:dd:5d:54:5b:be:9b:bf:a8:dd:
                    5c:3c:86:34:62:ef:01:21:10:68:17:fa:a1:0b:4a:
                    91:0b:61:d1:44:79:e2:7a:09:a1:43:ec:43:fa:da:
                    79:c4:55:2d:b7:e5:a9:8d:ff:1e:64:e7:a4:4c:f7:
                    59:3d:d6:a7:81:e6:3e:80:e1:f8:66:65:6a:d1:0e:
                    b5:ed:d1:cc:5e:18:91:69:a6:49:30:8a:85:26:f7:
                    8c:f7:f6:28:20:a0:af:42:55:4e:fb:42:99:81:aa:
                    ae:8c:f9:d7:4a:25:dd:4c:24:6d:b7:7b:17:13:e0:
                    c5:4d:1b:6b:af:b2:7f:76:d5:e1:8f:9f:2b:73:3b:
                    88:66:cc:74:21:80:69:8b:62:0b:3a:9f:e8:88:82:
                    ec:a3:d2:6c:58:c1:08:33:0a:c8:a2:ac:75:cf:5b:
                    4d:bd:00:d3:69:80:9b:95:ce:df:29:81:98:9b:bf:
                    86:80:b5:6c:88:6d:ad:5a:b2:c5:65:d5:22:4a:ba:
                    24:5c:76:71:14:63:52:8b:cb:79:4c:3f:5a:ac:6d:
                    ec:61
                Exponent: 65537 (0x10001)
        X509v3 extensions:
            X509v3 Basic Constraints: 
                CA:FALSE
            Netscape Comment: 
                OpenSSL Generated Certificate
            X509v3 Subject Key Identifier: 
                DC:97:82:C1:AA:F7:50:D5:A2:5C:65:08:74:7B:64:5A:E7:DC:D3:EB
            X509v3 Authority Key Identifier: 
                keyid:50:82:77:72:75:61:A6:1E:3E:5A:41:9F:75:F8:AE:21:B4:8A:FD:66

    Signature Algorithm: sha256WithRSAEncryption
         4b:6f:9f:4c:41:fa:1f:28:9c:a6:82:00:2c:4f:8a:2e:b0:74:
         f9:0e:ca:b5:b8:c9:1a:e1:07:13:bf:0c:e0:ca:f0:80:cb:d5:
         f7:2b:2f:e4:2d:9c:96:e7:24:4c:d8:e4:5e:1f:9e:05:70:39:
         66:7b:ff:28:37:0c:6f:9b:00:78:0e:2c:29:f6:a7:e9:50:55:
         90:68:fb:8a:a9:cb:0f:62:4a:e3:94:24:b8:22:ac:e5:85:1e:
         ae:ee:b0:1c:ee:7c:16:cc:f4:86:18:ad:ff:92:f7:9f:34:f3:
         e5:23:db:e4:2c:46:8c:2f:3e:0a:18:dd:52:5c:86:0a:46:8a:
         1a:53:24:77:ca:39:8f:8a:82:e8:13:e8:46:8d:4c:0e:c2:f5:
         db:59:83:26:83:ae:44:c5:a5:e0:e1:07:1b:20:8e:c8:5c:6b:
         15:41:87:5f:4c:c8:c7:6d:79:84:e1:c2:b9:b9:bf:6d:76:7a:
         f7:e6:b4:24:b9:9a:f5:79:26:ec:b4:73:ae:9b:79:56:c4:b8:
         ac:fc:81:a4:df:ad:d5:2e:d9:4c:30:7f:5d:69:46:f5:23:cf:
         53:11:97:c0:1f:c3:59:d3:5c:2a:34:cf:bd:ab:19:bc:c6:3e:
         b9:55:70:6e:ad:d7:26:18:da:22:da:16:54:ae:f4:cf:cd:aa:
         3b:59:60:55
-----BEGIN CERTIFICATE-----
MIIEHzCCAwegAwIBAgIJAI8LJm0fd9ePMA0GCSqGSIb3DQEBCwUAMIGWMQswCQYD
VQQGEwJNTTEOMAwGA1UECAwFQnVybWExETAPBgNVBAcMCE1hbmRhbGF5MQ8wDQYD
VQQKDAZLQlpQYXkxFjAUBgNVBAsMDUtCWlBheV9QR1dfQ0ExFzAVBgNVBAMMDmFw
aS5rYnpwYXkuY29tMSIwIAYJKoZIhvcNAQkBFhNqaWFuZ2JpbkBodWF3ZWkuY29t
MCAXDTIzMDcxODA3MjkxOVoYDzIxMjMwNjI0MDcyOTE5WjCBhzELMAkGA1UEBhMC
TU0xDjAMBgNVBAgMBUJ1cm1hMQ8wDQYDVQQKDAZLQlpQYXkxGjAYBgNVBAsMEUtC
WlBheV9QR1dfMjAwMjc3MRcwFQYDVQQDDA5hcGkua2J6cGF5LmNvbTEiMCAGCSqG
SIb3DQEJARYTamlhbmdiaW5AaHVhd2VpLmNvbTCCASIwDQYJKoZIhvcNAQEBBQAD
ggEPADCCAQoCggEBAMbz+rxZDbFT/BPsUhfBtweCbDgtoINO7kg4+CdNnhuWPwMI
BXd/30x69GUyFqS/ZLFL3V1UW76bv6jdXDyGNGLvASEQaBf6oQtKkQth0UR54noJ
oUPsQ/raecRVLbflqY3/HmTnpEz3WT3Wp4HmPoDh+GZlatEOte3RzF4YkWmmSTCK
hSb3jPf2KCCgr0JVTvtCmYGqroz510ol3Uwkbbd7FxPgxU0ba6+yf3bV4Y+fK3M7
iGbMdCGAaYtiCzqf6IiC7KPSbFjBCDMKyKKsdc9bTb0A02mAm5XO3ymBmJu/hoC1
bIhtrVqyxWXVIkq6JFx2cRRjUovLeUw/Wqxt7GECAwEAAaN7MHkwCQYDVR0TBAIw
ADAsBglghkgBhvhCAQ0EHxYdT3BlblNTTCBHZW5lcmF0ZWQgQ2VydGlmaWNhdGUw
HQYDVR0OBBYEFNyXgsGq91DVolxlCHR7ZFrn3NPrMB8GA1UdIwQYMBaAFFCCd3J1
YaYePlpBn3X4riG0iv1mMA0GCSqGSIb3DQEBCwUAA4IBAQBLb59MQfofKJymggAs
T4ousHT5Dsq1uMka4QcTvwzgyvCAy9X3Ky/kLZyW5yRM2OReH54FcDlme/8oNwxv
mwB4Diwp9qfpUFWQaPuKqcsPYkrjlCS4IqzlhR6u7rAc7nwWzPSGGK3/kvefNPPl
I9vkLEaMLz4KGN1SXIYKRooaUyR3yjmPioLoE+hGjUwOwvXbWYMmg65ExaXg4Qcb
II7IXGsVQYdfTMjHbXmE4cK5ub9tdnr35rQkuZr1eSbstHOum3lWxLis/IGk363V
LtlMMH9daUb1I89TEZfAH8NZ01wqNM+9qxm8xj65VXBurdcmGNoi2hZUrvTPzao7
WWBV
-----END CERTIFICATE-----
